; Function Attrs: nounwind uwtable
define dso_local noundef ptr @list_append_unique_ptr(ptr noundef %0, ptr noundef %1) local_unnamed_addr #0 {
  %3 = getelementptr inbounds nuw i8, ptr %0, i64 16
  %.not.i = icmp eq ptr %0, null
  br i1 %.not.i, label %.loopexit, label %.lr.ph.i

.lr.ph.i:                                         ; preds = %2
  %4 = getelementptr inbounds nuw i8, ptr %0, i64 4
  %5 = load i32, ptr %4, align 4
  %6 = icmp sgt i32 %5, 0
  br i1 %6, label %.lr.ph23.i, label %.loopexit

.lr.ph23.i:                                       ; preds = %.lr.ph.i
  %7 = load ptr, ptr %3, align 8
  %wide.trip.count.i = zext nneg i32 %5 to i64
  br label %9

8:                                                ; preds = %9
  %indvars.iv.next.i = add nuw nsw i64 %indvars.iv.i, 1
  %exitcond.not.i = icmp eq i64 %indvars.iv.next.i, %wide.trip.count.i
  br i1 %exitcond.not.i, label %.loopexit, label %9

9:                                                ; preds = %8, %.lr.ph23.i
  %indvars.iv.i = phi i64 [ 0, %.lr.ph23.i ], [ %indvars.iv.next.i, %8 ]
  %10 = getelementptr inbounds nuw %union.ListCell, ptr %7, i64 %indvars.iv.i
  %11 = load ptr, ptr %10, align 8
  %12 = icmp eq ptr %11, %1
  br i1 %12, label %list_member_ptr.exit, label %8

.loopexit:                                        ; preds = %8, %2, %.lr.ph.i
  %13 = tail call ptr @lappend(ptr noundef %0, ptr noundef %1)
  br label %list_member_ptr.exit

list_member_ptr.exit:                             ; preds = %9, %.loopexit
  %.0 = phi ptr [ %13, %.loopexit ], [ %0, %9 ]
  ret ptr %.0
}